target datalayout = "e-m:e-p270:32:32-p271:32:32-p272:64:64-i64:64-i128:128-f80:128-n8:16:32:64-S128"
target triple = "x86_64-pc-linux-gnu"

%class.LibRaw = type { ptr, %struct.libraw_data_t, ptr, %struct.libraw_internal_data_t, [2048 x %struct.decode], ptr, ptr, [10 x %struct.tiff_ifd_t], %class.libraw_memmgr, %struct.libraw_callbacks_t, { i64, i64 }, { i64, i64 }, { i64, i64 }, ptr, ptr, ptr, i64, ptr, ptr, ptr, ptr }
%struct.libraw_data_t = type { ptr, %struct.libraw_image_sizes_t, %struct.libraw_iparams_t, %struct.libraw_lensinfo_t, %struct.libraw_makernotes_t, %struct.libraw_shootinginfo_t, %struct.libraw_output_params_t, %struct.libraw_raw_unpack_params_t, i32, i32, %struct.libraw_colordata_t, %struct.libraw_imgother_t, %struct.libraw_thumbnail_t, %struct.libraw_thumbnail_list_t, %struct.libraw_rawdata_t, ptr }
%struct.libraw_image_sizes_t = type { i16, i16, i16, i16, i16, i16, i16, i16, i32, double, i32, [8 x [4 x i32]], i16, [2 x %struct.libraw_raw_inset_crop_t] }
%struct.libraw_raw_inset_crop_t = type { i16, i16, i16, i16 }
%struct.libraw_iparams_t = type { [4 x i8], [64 x i8], [64 x i8], [64 x i8], [64 x i8], [64 x i8], i32, i32, i32, i32, i32, i32, [6 x [6 x i8]], [6 x [6 x i8]], [5 x i8], i32, ptr }
%struct.libraw_lensinfo_t = type { float, float, float, float, float, [128 x i8], [128 x i8], [128 x i8], [128 x i8], i16, %struct.libraw_nikonlens_t, %struct.libraw_dnglens_t, %struct.libraw_makernotes_lens_t }
%struct.libraw_nikonlens_t = type { float, i8, i8, i8, i8 }
%struct.libraw_dnglens_t = type { float, float, float, float }
%struct.libraw_makernotes_lens_t = type { i64, [128 x i8], i16, i16, i64, i16, i16, [64 x i8], i16, [16 x i8], [16 x i8], float, float, float, float, float, float, float, float, float, float, float, float, float, float, float, i64, [128 x i8], i64, [128 x i8], i64, [128 x i8], i16, float }
%struct.libraw_makernotes_t = type { %struct.libraw_canon_makernotes_t, %struct.libraw_nikon_makernotes_t, %struct.libraw_hasselblad_makernotes_t, %struct.libraw_fuji_info_t, %struct.libraw_olympus_makernotes_t, %struct.libraw_sony_info_t, %struct.libraw_kodak_makernotes_t, %struct.libraw_panasonic_makernotes_t, %struct.libraw_pentax_makernotes_t, %struct.libraw_p1_makernotes_t, %struct.libraw_ricoh_makernotes_t, %struct.libraw_samsung_makernotes_t, %struct.libraw_metadata_common_t }
%struct.libraw_canon_makernotes_t = type { i32, i32, i32, i32, [4 x i32], i32, [4 x i32], i16, i16, i8, i16, i16, i16, i16, i16, i16, i16, i16, i16, i16, i16, i16, i16, i32, float, i16, i16, i16, i32, i16, i32, i32, i16, i32, %struct.libraw_area_t, %struct.libraw_area_t, %struct.libraw_area_t, %struct.libraw_area_t, %struct.libraw_area_t, [2 x i16] }
%struct.libraw_area_t = type { i16, i16, i16, i16 }
%struct.libraw_nikon_makernotes_t = type { double, i16, i16, [7 x i8], i8, i8, [13 x i8], [20 x i8], [4 x i8], [4 x i8], [4 x i8], i8, i8, i8, i8, i8, [2 x i8], i8, i8, i8, i8, i8, [4 x i8], [4 x i8], i8, i16, i32, i32, i32, i32, [4 x double], i8, i8, i8, i32, i32, i32, i8, [4 x i16], i16, %struct.libraw_sensor_highspeed_crop_t, i16, i16, i16, i32, [20 x i8], [20 x i8], i32, i16, double, double, double }
%struct.libraw_sensor_highspeed_crop_t = type { i16, i16, i16, i16 }
%struct.libraw_hasselblad_makernotes_t = type { i32, double, [8 x i8], [64 x i8], [64 x i8], i32, i32, i32, i32, [32 x i8], [64 x i8], i32, [2 x i32], [2 x i32], [4 x [3 x double]] }
%struct.libraw_fuji_info_t = type { float, i16, i16, i16, i16, i16, i16, i16, i16, [33 x i8], [33 x i8], float, i16, i16, [2 x i16], i16, i32, i32, i16, [3 x i16], i16, i16, i16, i16, i16, i32, i16, [13 x i8], [5 x i8], [5 x i8], i32, i16, i32, i16, [9 x i16], [32 x i32], i32, i32, i32, [2 x float], i32 }
%struct.libraw_olympus_makernotes_t = type { [6 x i8], i16, [2 x i32], [5 x i16], i16, [2 x i16], i16, i16, [64 x i32], [5 x double], i16, i8, [3 x i16], [3 x i32], i16, i16, i16, i16, double, [4 x i16], [2 x i32], i8, i32, i16, i16 }
%struct.libraw_sony_info_t = type { i16, i8, i8, i32, i8, i32, i8, i8, i16, [2 x i16], i8, i8, i16, [10 x i8], i8, i8, [4 x i16], i16, i8, i8, i8, i16, i32, i16, [2 x i16], i16, i16, i16, i16, i16, i16, i16, i32, float, i16, i32, i32, i16, [20 x i8], i32, i16, i32, i8, i8, i16, i16, i16, i16, i16, i16, i16, i16, i16, i32, i16, [16 x i8], float }
%struct.libraw_kodak_makernotes_t = type { i16, i16, i16, i16, i16, i16, [3 x [3 x float]], [3 x [3 x float]], [3 x [3 x float]], [3 x [3 x float]], [3 x [3 x float]], [3 x [3 x float]], i16, i16, i16, i16, float, float }
%struct.libraw_panasonic_makernotes_t = type { i16, i16, [8 x float], i32, float, [3 x i32], i16, i16, i32, i32 }
%struct.libraw_pentax_makernotes_t = type { [4 x i8], [2 x i16], [2 x i16], i16, i32, i32, i16, i16, i8, i8, i16 }
%struct.libraw_p1_makernotes_t = type { [64 x i8], [64 x i8], [256 x i8], [64 x i8] }
%struct.libraw_ricoh_makernotes_t = type { i16, [2 x i32], [2 x i32], i16, i32, i32, i32, i32, i16, i16, i16, i16, i16, i16, double, double }
%struct.libraw_samsung_makernotes_t = type { [4 x i32], [4 x i32], [2 x i32], [11 x i32], double, i32, [32 x i8] }
%struct.libraw_metadata_common_t = type { float, float, float, float, float, float, float, float, float, float, float, float, float, float, float, float, i16, [128 x i8], float, [4 x %struct.libraw_afinfo_item_t], i32 }
%struct.libraw_afinfo_item_t = type { i32, i16, i32, i32, ptr }
%struct.libraw_shootinginfo_t = type { i16, i16, i16, i16, i16, i16, i16, [64 x i8], [64 x i8] }
%struct.libraw_output_params_t = type { [4 x i32], [4 x i32], [4 x double], [6 x double], [4 x float], float, float, i32, i32, i32, i32, i32, i32, i32, ptr, ptr, ptr, ptr, i32, i32, i32, i32, i32, i32, [4 x i32], i32, i32, float, float, i32, i32, i32, i32, i32, i32, i32, i32, float, float, i32, i32 }
%struct.libraw_raw_unpack_params_t = type { i32, i32, i32, i32, i32, i32, i32, float, [5 x i8], ptr }
%struct.libraw_colordata_t = type { [65536 x i16], [4104 x i32], i32, i32, i32, [4 x i64], float, float, [8 x [8 x i16]], [4 x float], [4 x float], [3 x [4 x float]], [3 x [4 x float]], [3 x [4 x float]], [4 x [3 x float]], %struct.ph1_t, float, float, [64 x i8], [64 x i8], [64 x i8], [64 x i8], [17 x i8], [64 x i8], ptr, i32, [8 x i32], [2 x %struct.libraw_dng_color_t], %struct.libraw_dng_levels_t, [256 x [4 x i32]], [64 x [5 x float]], i32, [2 x %struct.libraw_P1_color_t], i32, i32 }
%struct.ph1_t = type { i32, i32, i32, i32, i32, i32, i32, i32, float }
%struct.libraw_dng_color_t = type { i32, i16, [4 x [4 x float]], [4 x [3 x float]], [3 x [4 x float]] }
%struct.libraw_dng_levels_t = type { i32, [4104 x i32], i32, [4104 x float], float, [4 x i32], [4 x i16], [4 x float], i32, [4 x float], [4 x float], float, float }
%struct.libraw_P1_color_t = type { [9 x float] }
%struct.libraw_imgother_t = type { float, float, float, float, i64, i32, [32 x i32], %struct.libraw_gps_info_t, [512 x i8], [64 x i8], [4 x float] }
%struct.libraw_gps_info_t = type { [3 x float], [3 x float], [3 x float], float, i8, i8, i8, i8, i8 }
%struct.libraw_thumbnail_t = type { i32, i16, i16, i32, i32, ptr }
%struct.libraw_thumbnail_list_t = type { i32, [8 x %struct.libraw_thumbnail_item_t] }
%struct.libraw_thumbnail_item_t = type { i32, i16, i16, i16, i32, i32, i64 }
%struct.libraw_rawdata_t = type { ptr, ptr, ptr, ptr, ptr, ptr, ptr, ptr, ptr, %struct.libraw_iparams_t, %struct.libraw_image_sizes_t, %struct.libraw_internal_output_params_t, %struct.libraw_colordata_t }
%struct.libraw_internal_output_params_t = type { i32, i32, i32, i16, i16 }
%struct.libraw_internal_data_t = type { %struct.internal_data_t, %struct.libraw_internal_output_params_t, %struct.output_data_t, %struct.identify_data_t, %struct.unpacker_data_t }
%struct.internal_data_t = type { ptr, ptr, i32, ptr, i64, i64, [4 x i32] }
%struct.output_data_t = type { ptr, ptr }
%struct.identify_data_t = type { i32, i64, i64, i32, i32, i32 }
%struct.unpacker_data_t = type { i16, [4 x i16], [3 x i16], i32, i64, i64, i64, i64, i64, i64, i32, i32, i32, i32, i32, i32, i32, i32, i32, i32, i32, i32, i32, i32, i32, i32, i32, i64, i32, i32, i32, i32, i32, i32, i32, i32, i32, %struct.pana8_tags_t, [16 x %struct.crx_data_header_t], i32, i32, i16, i16, i32, i32, i32, i32, i32, i32, i32, [20 x i32], i16 }
%struct.pana8_tags_t = type { [6 x i32], [6 x i16], i16, [4 x i16], [17 x i16], [17 x i16], [17 x i16], i16, i16, [5 x i64], [5 x i16], [5 x i32], [5 x i16], [5 x i16] }
%struct.crx_data_header_t = type { i32, i32, i32, i32, i32, i32, i32, i32, i32, i32, i32, i32, i32, i32, i32, i64, i32, ptr, i32, i32, i32, ptr, i32, ptr }
%struct.decode = type { [2 x ptr], i32 }
%struct.tiff_ifd_t = type { i32, i32, i32, i32, i32, i32, i32, i32, i32, i32, i32, i32, i32, i32, i32, ptr, i32, ptr, i32, i32, i32, i32, i32, i32, i32, float, i64, i64, i32, [2 x %struct.libraw_dng_color_t], %struct.libraw_dng_levels_t, i32 }
%class.libraw_memmgr = type <{ ptr, i32, [4 x i8] }>
%struct.libraw_callbacks_t = type { ptr, ptr, ptr, ptr, ptr, ptr, ptr, ptr, ptr, ptr, ptr, ptr, ptr, ptr, ptr, ptr, ptr }

@.str = private unnamed_addr constant [4 x i8] c"R98\00", align 1
@.str.1 = private unnamed_addr constant [4 x i8] c"R03\00", align 1

; Function Attrs: mustprogress uwtable
define void @_ZN6LibRaw18parse_exif_interopEi(ptr noundef nonnull align 8 dereferenceable(767680) %0, i32 noundef %1) #0 align 2 {
  %3 = alloca ptr, align 8
  %4 = alloca i32, align 4
  %5 = alloca i32, align 4
  %6 = alloca i32, align 4
  %7 = alloca i32, align 4
  %8 = alloca i32, align 4
  %9 = alloca i32, align 4
  %10 = alloca [4 x i8], align 1
  %11 = alloca i64, align 8
  %12 = alloca i64, align 8
  %13 = alloca i32, align 4
  store ptr %0, ptr %3, align 8, !tbaa !6
  store i32 %1, ptr %4, align 4, !tbaa !11
  %14 = load ptr, ptr %3, align 8
  call void @llvm.lifetime.start.p0(i64 4, ptr %5) #10
  call void @llvm.lifetime.start.p0(i64 4, ptr %6) #10
  call void @llvm.lifetime.start.p0(i64 4, ptr %7) #10
  call void @llvm.lifetime.start.p0(i64 4, ptr %8) #10
  call void @llvm.lifetime.start.p0(i64 4, ptr %9) #10
  call void @llvm.lifetime.start.p0(i64 4, ptr %10) #10
  call void @llvm.memset.p0.i64(ptr align 1 %10, i8 0, i64 4, i1 false)
  %15 = call noundef zeroext i16 @_ZN6LibRaw4get2Ev(ptr noundef nonnull align 8 dereferenceable(767680) %14)
  %16 = zext i16 %15 to i32
  store i32 %16, ptr %5, align 4, !tbaa !11
  call void @llvm.lifetime.start.p0(i64 8, ptr %11) #10
  %17 = getelementptr inbounds nuw %class.LibRaw, ptr %14, i32 0, i32 3
  %18 = getelementptr inbounds nuw %struct.libraw_internal_data_t, ptr %17, i32 0, i32 0
  %19 = getelementptr inbounds nuw %struct.internal_data_t, ptr %18, i32 0, i32 0
  %20 = load ptr, ptr %19, align 8, !tbaa !13
  %21 = load ptr, ptr %20, align 8, !tbaa !74
  %22 = getelementptr inbounds ptr, ptr %21, i64 6
  %23 = load ptr, ptr %22, align 8
  %24 = call noundef i64 %23(ptr noundef nonnull align 8 dereferenceable(8) %20)
  store i64 %24, ptr %11, align 8, !tbaa !76
  br label %25

25:                                               ; preds = %152, %150, %2
  %26 = load i32, ptr %5, align 4, !tbaa !11
  %27 = add i32 %26, -1
  store i32 %27, ptr %5, align 4, !tbaa !11
  %28 = icmp ne i32 %26, 0
  br i1 %28, label %29, label %153

29:                                               ; preds = %25
  %30 = load i32, ptr %4, align 4, !tbaa !11
  call void @_ZN6LibRaw8tiff_getEjPjS0_S0_S0_(ptr noundef nonnull align 8 dereferenceable(767680) %14, i32 noundef %30, ptr noundef %6, ptr noundef %7, ptr noundef %8, ptr noundef %9)
  call void @llvm.lifetime.start.p0(i64 8, ptr %12) #10
  %31 = getelementptr inbounds nuw %class.LibRaw, ptr %14, i32 0, i32 3
  %32 = getelementptr inbounds nuw %struct.libraw_internal_data_t, ptr %31, i32 0, i32 0
  %33 = getelementptr inbounds nuw %struct.internal_data_t, ptr %32, i32 0, i32 0
  %34 = load ptr, ptr %33, align 8, !tbaa !13
  %35 = load ptr, ptr %34, align 8, !tbaa !74
  %36 = getelementptr inbounds ptr, ptr %35, i64 5
  %37 = load ptr, ptr %36, align 8
  %38 = call noundef i64 %37(ptr noundef nonnull align 8 dereferenceable(8) %34)
  store i64 %38, ptr %12, align 8, !tbaa !76
  %39 = load i32, ptr %8, align 4, !tbaa !11
  %40 = icmp ugt i32 %39, 8
  br i1 %40, label %41, label %60

41:                                               ; preds = %29
  %42 = load i64, ptr %12, align 8, !tbaa !76
  %43 = load i32, ptr %8, align 4, !tbaa !11
  %44 = zext i32 %43 to i64
  %45 = add nsw i64 %42, %44
  %46 = load i64, ptr %11, align 8, !tbaa !76
  %47 = mul nsw i64 %46, 2
  %48 = icmp sgt i64 %45, %47
  br i1 %48, label %49, label %60

49:                                               ; preds = %41
  %50 = getelementptr inbounds nuw %class.LibRaw, ptr %14, i32 0, i32 3
  %51 = getelementptr inbounds nuw %struct.libraw_internal_data_t, ptr %50, i32 0, i32 0
  %52 = getelementptr inbounds nuw %struct.internal_data_t, ptr %51, i32 0, i32 0
  %53 = load ptr, ptr %52, align 8, !tbaa !13
  %54 = load i32, ptr %9, align 4, !tbaa !11
  %55 = zext i32 %54 to i64
  %56 = load ptr, ptr %53, align 8, !tbaa !74
  %57 = getelementptr inbounds ptr, ptr %56, i64 4
  %58 = load ptr, ptr %57, align 8
  %59 = call noundef i32 %58(ptr noundef nonnull align 8 dereferenceable(8) %53, i64 noundef %55, i32 noundef 0)
  store i32 2, ptr %13, align 4
  br label %150, !llvm.loop !77

60:                                               ; preds = %41, %29
  %61 = getelementptr inbounds nuw %class.LibRaw, ptr %14, i32 0, i32 9
  %62 = getelementptr inbounds nuw %struct.libraw_callbacks_t, ptr %61, i32 0, i32 4
  %63 = load ptr, ptr %62, align 8, !tbaa !79
  %64 = icmp ne ptr %63, null
  br i1 %64, label %65, label %96

65:                                               ; preds = %60
  %66 = getelementptr inbounds nuw %class.LibRaw, ptr %14, i32 0, i32 9
  %67 = getelementptr inbounds nuw %struct.libraw_callbacks_t, ptr %66, i32 0, i32 4
  %68 = load ptr, ptr %67, align 8, !tbaa !79
  %69 = getelementptr inbounds nuw %class.LibRaw, ptr %14, i32 0, i32 9
  %70 = getelementptr inbounds nuw %struct.libraw_callbacks_t, ptr %69, i32 0, i32 5
  %71 = load ptr, ptr %70, align 8, !tbaa !80
  %72 = load i32, ptr %6, align 4, !tbaa !11
  %73 = or i32 %72, 262144
  %74 = load i32, ptr %7, align 4, !tbaa !11
  %75 = load i32, ptr %8, align 4, !tbaa !11
  %76 = getelementptr inbounds nuw %class.LibRaw, ptr %14, i32 0, i32 3
  %77 = getelementptr inbounds nuw %struct.libraw_internal_data_t, ptr %76, i32 0, i32 4
  %78 = getelementptr inbounds nuw %struct.unpacker_data_t, ptr %77, i32 0, i32 0
  %79 = load i16, ptr %78, align 8, !tbaa !81
  %80 = sext i16 %79 to i32
  %81 = getelementptr inbounds nuw %class.LibRaw, ptr %14, i32 0, i32 3
  %82 = getelementptr inbounds nuw %struct.libraw_internal_data_t, ptr %81, i32 0, i32 0
  %83 = getelementptr inbounds nuw %struct.internal_data_t, ptr %82, i32 0, i32 0
  %84 = load ptr, ptr %83, align 8, !tbaa !13
  %85 = load i32, ptr %4, align 4, !tbaa !11
  %86 = sext i32 %85 to i64
  call void %68(ptr noundef %71, i32 noundef %73, i32 noundef %74, i32 noundef %75, i32 noundef %80, ptr noundef %84, i64 noundef %86)
  %87 = getelementptr inbounds nuw %class.LibRaw, ptr %14, i32 0, i32 3
  %88 = getelementptr inbounds nuw %struct.libraw_internal_data_t, ptr %87, i32 0, i32 0
  %89 = getelementptr inbounds nuw %struct.internal_data_t, ptr %88, i32 0, i32 0
  %90 = load ptr, ptr %89, align 8, !tbaa !13
  %91 = load i64, ptr %12, align 8, !tbaa !76
  %92 = load ptr, ptr %90, align 8, !tbaa !74
  %93 = getelementptr inbounds ptr, ptr %92, i64 4
  %94 = load ptr, ptr %93, align 8
  %95 = call noundef i32 %94(ptr noundef nonnull align 8 dereferenceable(8) %90, i64 noundef %91, i32 noundef 0)
  br label %96

96:                                               ; preds = %65, %60
  %97 = load i32, ptr %6, align 4, !tbaa !11
  switch i32 %97, label %139 [
    i32 1, label %98
  ]

98:                                               ; preds = %96
  %99 = getelementptr inbounds nuw %class.LibRaw, ptr %14, i32 0, i32 3
  %100 = getelementptr inbounds nuw %struct.libraw_internal_data_t, ptr %99, i32 0, i32 0
  %101 = getelementptr inbounds nuw %struct.internal_data_t, ptr %100, i32 0, i32 0
  %102 = load ptr, ptr %101, align 8, !tbaa !13
  %103 = getelementptr inbounds [4 x i8], ptr %10, i64 0, i64 0
  %104 = load i32, ptr %8, align 4, !tbaa !11
  %105 = icmp ult i32 4, %104
  br i1 %105, label %106, label %107

106:                                              ; preds = %98
  br label %109

107:                                              ; preds = %98
  %108 = load i32, ptr %8, align 4, !tbaa !11
  br label %109

109:                                              ; preds = %107, %106
  %110 = phi i32 [ 4, %106 ], [ %108, %107 ]
  %111 = zext i32 %110 to i64
  %112 = load ptr, ptr %102, align 8, !tbaa !74
  %113 = getelementptr inbounds ptr, ptr %112, i64 3
  %114 = load ptr, ptr %113, align 8
  %115 = call noundef i32 %114(ptr noundef nonnull align 8 dereferenceable(8) %102, ptr noundef %103, i64 noundef 1, i64 noundef %111)
  %116 = getelementptr inbounds [4 x i8], ptr %10, i64 0, i64 0
  %117 = call i32 @strncmp(ptr noundef %116, ptr noundef @.str, i64 noundef 3) #11
  %118 = icmp eq i32 %117, 0
  br i1 %118, label %119, label %129

119:                                              ; preds = %109
  %120 = getelementptr inbounds nuw %class.LibRaw, ptr %14, i32 0, i32 1
  %121 = getelementptr inbounds nuw %struct.libraw_data_t, ptr %120, i32 0, i32 10
  %122 = getelementptr inbounds nuw %struct.libraw_colordata_t, ptr %121, i32 0, i32 34
  %123 = load i32, ptr %122, align 4, !tbaa !82
  %124 = icmp eq i32 %123, 255
  br i1 %124, label %125, label %129

125:                                              ; preds = %119
  %126 = getelementptr inbounds nuw %class.LibRaw, ptr %14, i32 0, i32 1
  %127 = getelementptr inbounds nuw %struct.libraw_data_t, ptr %126, i32 0, i32 10
  %128 = getelementptr inbounds nuw %struct.libraw_colordata_t, ptr %127, i32 0, i32 34
  store i32 1, ptr %128, align 4, !tbaa !82
  br label %138

129:                                              ; preds = %119, %109
  %130 = getelementptr inbounds [4 x i8], ptr %10, i64 0, i64 0
  %131 = call i32 @strncmp(ptr noundef %130, ptr noundef @.str.1, i64 noundef 3) #11
  %132 = icmp eq i32 %131, 0
  br i1 %132, label %133, label %137

133:                                              ; preds = %129
  %134 = getelementptr inbounds nuw %class.LibRaw, ptr %14, i32 0, i32 1
  %135 = getelementptr inbounds nuw %struct.libraw_data_t, ptr %134, i32 0, i32 10
  %136 = getelementptr inbounds nuw %struct.libraw_colordata_t, ptr %135, i32 0, i32 34
  store i32 2, ptr %136, align 4, !tbaa !82
  br label %137

137:                                              ; preds = %133, %129
  br label %138

138:                                              ; preds = %137, %125
  br label %139

139:                                              ; preds = %96, %138
  %140 = getelementptr inbounds nuw %class.LibRaw, ptr %14, i32 0, i32 3
  %141 = getelementptr inbounds nuw %struct.libraw_internal_data_t, ptr %140, i32 0, i32 0
  %142 = getelementptr inbounds nuw %struct.internal_data_t, ptr %141, i32 0, i32 0
  %143 = load ptr, ptr %142, align 8, !tbaa !13
  %144 = load i32, ptr %9, align 4, !tbaa !11
  %145 = zext i32 %144 to i64
  %146 = load ptr, ptr %143, align 8, !tbaa !74
  %147 = getelementptr inbounds ptr, ptr %146, i64 4
  %148 = load ptr, ptr %147, align 8
  %149 = call noundef i32 %148(ptr noundef nonnull align 8 dereferenceable(8) %143, i64 noundef %145, i32 noundef 0)
  store i32 0, ptr %13, align 4
  br label %150

150:                                              ; preds = %139, %49
  call void @llvm.lifetime.end.p0(i64 8, ptr %12) #10
  %151 = load i32, ptr %13, align 4
  switch i32 %151, label %154 [
    i32 0, label %152
    i32 2, label %25
  ]

152:                                              ; preds = %150
  br label %25, !llvm.loop !77

153:                                              ; preds = %25
  call void @llvm.lifetime.end.p0(i64 8, ptr %11) #10
  call void @llvm.lifetime.end.p0(i64 4, ptr %10) #10
  call void @llvm.lifetime.end.p0(i64 4, ptr %9) #10
  call void @llvm.lifetime.end.p0(i64 4, ptr %8) #10
  call void @llvm.lifetime.end.p0(i64 4, ptr %7) #10
  call void @llvm.lifetime.end.p0(i64 4, ptr %6) #10
  call void @llvm.lifetime.end.p0(i64 4, ptr %5) #10
  ret void

154:                                              ; preds = %150
  unreachable
}