; Function Attrs: mustprogress uwtable
define void @_ZN6LibRaw18parse_exif_interopEi(ptr noundef nonnull align 8 dereferenceable(767680) %0, i32 noundef %1) local_unnamed_addr #0 align 2 {
  %3 = alloca i32, align 4
  %4 = alloca i32, align 4
  %5 = alloca i32, align 4
  %6 = alloca i32, align 4
  %7 = alloca [4 x i8], align 4
  call void @llvm.lifetime.start.p0(i64 4, ptr nonnull %3) #10
  call void @llvm.lifetime.start.p0(i64 4, ptr nonnull %4) #10
  call void @llvm.lifetime.start.p0(i64 4, ptr nonnull %5) #10
  call void @llvm.lifetime.start.p0(i64 4, ptr nonnull %6) #10
  call void @llvm.lifetime.start.p0(i64 4, ptr nonnull %7) #10
  store i32 0, ptr %7, align 4
  %8 = tail call noundef zeroext i16 @_ZN6LibRaw4get2Ev(ptr noundef nonnull align 8 dereferenceable(767680) %0)
  %9 = getelementptr inbounds nuw i8, ptr %0, i64 381416
  %10 = load ptr, ptr %9, align 8, !tbaa !6
  %11 = load ptr, ptr %10, align 8, !tbaa !71
  %12 = getelementptr inbounds nuw i8, ptr %11, i64 48
  %13 = load ptr, ptr %12, align 8
  %14 = tail call noundef i64 %13(ptr noundef nonnull align 8 dereferenceable(8) %10)
  %.not10 = icmp eq i16 %8, 0
  br i1 %.not10, label %._crit_edge, label %.lr.ph

.lr.ph:                                           ; preds = %2
  %15 = zext i16 %8 to i32
  %16 = shl nsw i64 %14, 1
  %17 = getelementptr inbounds nuw i8, ptr %0, i64 767464
  %18 = getelementptr inbounds nuw i8, ptr %0, i64 767472
  %19 = getelementptr inbounds nuw i8, ptr %0, i64 381552
  %20 = sext i32 %1 to i64
  %21 = getelementptr inbounds nuw i8, ptr %0, i64 192548
  br label %22

22:                                               ; preds = %.lr.ph, %65
  %.in = phi i32 [ %15, %.lr.ph ], [ %23, %65 ]
  %23 = add nsw i32 %.in, -1
  call void @_ZN6LibRaw8tiff_getEjPjS0_S0_S0_(ptr noundef nonnull align 8 dereferenceable(767680) %0, i32 noundef %1, ptr noundef nonnull %3, ptr noundef nonnull %4, ptr noundef nonnull %5, ptr noundef nonnull %6)
  %24 = load ptr, ptr %9, align 8, !tbaa !6
  %25 = load ptr, ptr %24, align 8, !tbaa !71
  %26 = getelementptr inbounds nuw i8, ptr %25, i64 40
  %27 = load ptr, ptr %26, align 8
  %28 = call noundef i64 %27(ptr noundef nonnull align 8 dereferenceable(8) %24)
  %29 = load i32, ptr %5, align 4, !tbaa !73
  %30 = icmp ugt i32 %29, 8
  %31 = zext i32 %29 to i64
  %32 = add nsw i64 %28, %31
  %33 = icmp sgt i64 %32, %16
  %or.cond = select i1 %30, i1 %33, i1 false
  br i1 %or.cond, label %65, label %34, !llvm.loop !74

34:                                               ; preds = %22
  %35 = load ptr, ptr %17, align 8, !tbaa !76
  %.not8 = icmp eq ptr %35, null
  br i1 %.not8, label %49, label %36

36:                                               ; preds = %34
  %37 = load ptr, ptr %18, align 8, !tbaa !77
  %38 = load i32, ptr %3, align 4, !tbaa !73
  %39 = or i32 %38, 262144
  %40 = load i32, ptr %4, align 4, !tbaa !73
  %41 = load i16, ptr %19, align 8, !tbaa !78
  %42 = sext i16 %41 to i32
  %43 = load ptr, ptr %9, align 8, !tbaa !6
  call void %35(ptr noundef %37, i32 noundef %39, i32 noundef %40, i32 noundef %29, i32 noundef %42, ptr noundef %43, i64 noundef %20)
  %44 = load ptr, ptr %9, align 8, !tbaa !6
  %45 = load ptr, ptr %44, align 8, !tbaa !71
  %46 = getelementptr inbounds nuw i8, ptr %45, i64 32
  %47 = load ptr, ptr %46, align 8
  %48 = call noundef i32 %47(ptr noundef nonnull align 8 dereferenceable(8) %44, i64 noundef %28, i32 noundef 0)
  br label %49

49:                                               ; preds = %36, %34
  %50 = load i32, ptr %3, align 4, !tbaa !73
  %cond = icmp eq i32 %50, 1
  br i1 %cond, label %51, label %65

51:                                               ; preds = %49
  %52 = load ptr, ptr %9, align 8, !tbaa !6
  %53 = load i32, ptr %5, align 4, !tbaa !73
  %54 = call i32 @llvm.umin.i32(i32 %53, i32 4)
  %55 = zext nneg i32 %54 to i64
  %56 = load ptr, ptr %52, align 8, !tbaa !71
  %57 = getelementptr inbounds nuw i8, ptr %56, i64 24
  %58 = load ptr, ptr %57, align 8
  %59 = call noundef i32 %58(ptr noundef nonnull align 8 dereferenceable(8) %52, ptr noundef nonnull %7, i64 noundef 1, i64 noundef %55)
  %bcmp = call i32 @bcmp(ptr noundef nonnull dereferenceable(3) %7, ptr noundef nonnull dereferenceable(3) @.str, i64 3)
  %60 = icmp eq i32 %bcmp, 0
  %61 = load i32, ptr %21, align 4
  %62 = icmp eq i32 %61, 255
  %or.cond14 = select i1 %60, i1 %62, i1 false
  br i1 %or.cond14, label %.sink.split, label %63

63:                                               ; preds = %51
  %bcmp9 = call i32 @bcmp(ptr noundef nonnull dereferenceable(3) %7, ptr noundef nonnull dereferenceable(3) @.str.1, i64 3)
  %64 = icmp eq i32 %bcmp9, 0
  br i1 %64, label %.sink.split, label %65

.sink.split:                                      ; preds = %63, %51
  %.sink = phi i32 [ 1, %51 ], [ 2, %63 ]
  store i32 %.sink, ptr %21, align 4, !tbaa !79
  br label %65

65:                                               ; preds = %49, %63, %.sink.split, %22
  %66 = load ptr, ptr %9, align 8, !tbaa !6
  %67 = load i32, ptr %6, align 4, !tbaa !73
  %68 = zext i32 %67 to i64
  %69 = load ptr, ptr %66, align 8, !tbaa !71
  %70 = getelementptr inbounds nuw i8, ptr %69, i64 32
  %71 = load ptr, ptr %70, align 8
  %72 = call noundef i32 %71(ptr noundef nonnull align 8 dereferenceable(8) %66, i64 noundef %68, i32 noundef 0)
  %.not = icmp eq i32 %23, 0
  br i1 %.not, label %._crit_edge, label %22

._crit_edge:                                      ; preds = %65, %2
  call void @llvm.lifetime.end.p0(i64 4, ptr nonnull %7) #10
  call void @llvm.lifetime.end.p0(i64 4, ptr nonnull %6) #10
  call void @llvm.lifetime.end.p0(i64 4, ptr nonnull %5) #10
  call void @llvm.lifetime.end.p0(i64 4, ptr nonnull %4) #10
  call void @llvm.lifetime.end.p0(i64 4, ptr nonnull %3) #10
  ret void
}